target datalayout = "e-m:e-p270:32:32-p271:32:32-p272:64:64-i64:64-i128:128-f80:128-n8:16:32:64-S128"
target triple = "x86_64-pc-linux-gnu"

%struct.__va_list_tag = type { i32, i32, ptr, ptr }

@environ = external global ptr, align 8
@.str.3 = private unnamed_addr constant [11 x i8] c"execve %s\0A\00", align 1
@.str.4 = private unnamed_addr constant [7 x i8] c"execve\00", align 1
@stderr = external global ptr, align 8
@.str.15 = private unnamed_addr constant [10 x i8] c"MOLD_PATH\00", align 1
@.str.16 = private unnamed_addr constant [22 x i8] c"MOLD_PATH is not set\0A\00", align 1

; Function Attrs: nounwind uwtable
define internal ptr @get_mold_path() #0 {
  %1 = alloca ptr, align 8
  call void @llvm.lifetime.start.p0(i64 8, ptr %1) #8
  %2 = call ptr @getenv(ptr noundef @.str.15) #8
  store ptr %2, ptr %1, align 8, !tbaa !3
  %3 = load ptr, ptr %1, align 8, !tbaa !3
  %4 = icmp ne ptr %3, null
  br i1 %4, label %5, label %7

5:                                                ; preds = %0
  %6 = load ptr, ptr %1, align 8, !tbaa !3
  call void @llvm.lifetime.end.p0(i64 8, ptr %1) #8
  ret ptr %6

7:                                                ; preds = %0
  %8 = load ptr, ptr @stderr, align 8, !tbaa !16
  %9 = call i32 (ptr, ptr, ...) @fprintf(ptr noundef %8, ptr noundef @.str.16) #8
  call void @exit(i32 noundef 1) #9
  unreachable
}

; Function Attrs: nounwind uwtable
define i32 @execve(ptr noundef nonnull %0, ptr noundef nonnull %1, ptr noundef %2) #0 {
  %4 = alloca ptr, align 8
  %5 = alloca ptr, align 8
  %6 = alloca ptr, align 8
  %7 = alloca ptr, align 8
  store ptr %0, ptr %4, align 8, !tbaa !3
  store ptr %1, ptr %5, align 8, !tbaa !8
  store ptr %2, ptr %6, align 8, !tbaa !8
  %8 = load ptr, ptr %4, align 8, !tbaa !3
  call void (ptr, ...) @debug_print(ptr noundef @.str.3, ptr noundef %8)
  %9 = load ptr, ptr %4, align 8, !tbaa !3
  %10 = call zeroext i1 @is_ld(ptr noundef %9)
  br i1 %10, label %11, label %13

11:                                               ; preds = %3
  %12 = call ptr @get_mold_path()
  store ptr %12, ptr %4, align 8, !tbaa !3
  br label %13

13:                                               ; preds = %11, %3
  call void @llvm.lifetime.start.p0(i64 8, ptr %7) #8
  %14 = call ptr @dlsym(ptr noundef inttoptr (i64 -1 to ptr), ptr noundef @.str.4) #8
  store ptr %14, ptr %7, align 8, !tbaa !15
  %15 = load ptr, ptr %7, align 8, !tbaa !15
  %16 = load ptr, ptr %4, align 8, !tbaa !3
  %17 = load ptr, ptr %5, align 8, !tbaa !8
  %18 = load ptr, ptr %6, align 8, !tbaa !8
  %19 = call i32 %15(ptr noundef %16, ptr noundef %17, ptr noundef %18)
  call void @llvm.lifetime.end.p0(i64 8, ptr %7) #8
  ret i32 %19
}

; Function Attrs: nounwind uwtable
define internal void @copy_args(ptr noundef %0, ptr noundef %1, ptr noundef %2) #0 {
  %4 = alloca ptr, align 8
  %5 = alloca ptr, align 8
  %6 = alloca ptr, align 8
  %7 = alloca i32, align 4
  %8 = alloca ptr, align 8
  store ptr %0, ptr %4, align 8, !tbaa !8
  store ptr %1, ptr %5, align 8, !tbaa !3
  store ptr %2, ptr %6, align 8, !tbaa !20
  call void @llvm.lifetime.start.p0(i64 4, ptr %7) #8
  store i32 1, ptr %7, align 4, !tbaa !11
  call void @llvm.lifetime.start.p0(i64 8, ptr %8) #8
  br label %9

9:                                                ; preds = %28, %3
  %10 = load ptr, ptr %6, align 8, !tbaa !20
  %11 = getelementptr inbounds [1 x %struct.__va_list_tag], ptr %10, i64 0, i64 0
  %12 = getelementptr inbounds nuw %struct.__va_list_tag, ptr %11, i32 0, i32 0
  %13 = load i32, ptr %12, align 8
  %14 = icmp ule i32 %13, 40
  br i1 %14, label %15, label %20

15:                                               ; preds = %9
  %16 = getelementptr inbounds nuw %struct.__va_list_tag, ptr %11, i32 0, i32 3
  %17 = load ptr, ptr %16, align 8
  %18 = getelementptr i8, ptr %17, i32 %13
  %19 = add i32 %13, 8
  store i32 %19, ptr %12, align 8
  br label %24

20:                                               ; preds = %9
  %21 = getelementptr inbounds nuw %struct.__va_list_tag, ptr %11, i32 0, i32 2
  %22 = load ptr, ptr %21, align 8
  %23 = getelementptr i8, ptr %22, i32 8
  store ptr %23, ptr %21, align 8
  br label %24

24:                                               ; preds = %20, %15
  %25 = phi ptr [ %18, %15 ], [ %22, %20 ]
  %26 = load ptr, ptr %25, align 8, !tbaa !3
  store ptr %26, ptr %8, align 8, !tbaa !3
  %27 = icmp ne ptr %26, null
  br i1 %27, label %28, label %35

28:                                               ; preds = %24
  %29 = load ptr, ptr %8, align 8, !tbaa !3
  %30 = load ptr, ptr %4, align 8, !tbaa !8
  %31 = load i32, ptr %7, align 4, !tbaa !11
  %32 = add nsw i32 %31, 1
  store i32 %32, ptr %7, align 4, !tbaa !11
  %33 = sext i32 %31 to i64
  %34 = getelementptr inbounds ptr, ptr %30, i64 %33
  store ptr %29, ptr %34, align 8, !tbaa !3
  br label %9, !llvm.loop !23

35:                                               ; preds = %24
  %36 = load ptr, ptr %5, align 8, !tbaa !3
  %37 = load ptr, ptr %4, align 8, !tbaa !8
  %38 = getelementptr inbounds ptr, ptr %37, i64 0
  store ptr %36, ptr %38, align 8, !tbaa !3
  %39 = load ptr, ptr %4, align 8, !tbaa !8
  %40 = load i32, ptr %7, align 4, !tbaa !11
  %41 = sext i32 %40 to i64
  %42 = getelementptr inbounds ptr, ptr %39, i64 %41
  store ptr null, ptr %42, align 8, !tbaa !3
  call void @llvm.lifetime.end.p0(i64 8, ptr %8) #8
  call void @llvm.lifetime.end.p0(i64 4, ptr %7) #8
  ret void
}

; Function Attrs: nounwind uwtable
define internal i32 @count_args(ptr noundef %0) #0 {
  %2 = alloca ptr, align 8
  %3 = alloca [1 x %struct.__va_list_tag], align 16
  %4 = alloca i32, align 4
  store ptr %0, ptr %2, align 8, !tbaa !20
  call void @llvm.lifetime.start.p0(i64 24, ptr %3) #8
  %5 = getelementptr inbounds [1 x %struct.__va_list_tag], ptr %3, i64 0, i64 0
  %6 = load ptr, ptr %2, align 8, !tbaa !20
  %7 = getelementptr inbounds [1 x %struct.__va_list_tag], ptr %6, i64 0, i64 0
  call void @llvm.va_copy.p0(ptr %5, ptr %7)
  call void @llvm.lifetime.start.p0(i64 4, ptr %4) #8
  store i32 0, ptr %4, align 4, !tbaa !11
  br label %8

8:                                                ; preds = %26, %1
  %9 = getelementptr inbounds [1 x %struct.__va_list_tag], ptr %3, i64 0, i64 0
  %10 = getelementptr inbounds nuw %struct.__va_list_tag, ptr %9, i32 0, i32 0
  %11 = load i32, ptr %10, align 16
  %12 = icmp ule i32 %11, 40
  br i1 %12, label %13, label %18

13:                                               ; preds = %8
  %14 = getelementptr inbounds nuw %struct.__va_list_tag, ptr %9, i32 0, i32 3
  %15 = load ptr, ptr %14, align 16
  %16 = getelementptr i8, ptr %15, i32 %11
  %17 = add i32 %11, 8
  store i32 %17, ptr %10, align 16
  br label %22

18:                                               ; preds = %8
  %19 = getelementptr inbounds nuw %struct.__va_list_tag, ptr %9, i32 0, i32 2
  %20 = load ptr, ptr %19, align 8
  %21 = getelementptr i8, ptr %20, i32 8
  store ptr %21, ptr %19, align 8
  br label %22

22:                                               ; preds = %18, %13
  %23 = phi ptr [ %16, %13 ], [ %20, %18 ]
  %24 = load ptr, ptr %23, align 8, !tbaa !3
  %25 = icmp ne ptr %24, null
  br i1 %25, label %26, label %29

26:                                               ; preds = %22
  %27 = load i32, ptr %4, align 4, !tbaa !11
  %28 = add nsw i32 %27, 1
  store i32 %28, ptr %4, align 4, !tbaa !11
  br label %8, !llvm.loop !22

29:                                               ; preds = %22
  %30 = getelementptr inbounds [1 x %struct.__va_list_tag], ptr %3, i64 0, i64 0
  call void @llvm.va_end.p0(ptr %30)
  %31 = load i32, ptr %4, align 4, !tbaa !11
  call void @llvm.lifetime.end.p0(i64 4, ptr %4) #8
  call void @llvm.lifetime.end.p0(i64 24, ptr %3) #8
  ret i32 %31
}

; Function Attrs: nounwind uwtable
define i32 @execl(ptr noundef nonnull %0, ptr noundef nonnull %1, ...) #0 {
  %3 = alloca ptr, align 8
  %4 = alloca ptr, align 8
  %5 = alloca [1 x %struct.__va_list_tag], align 16
  %6 = alloca ptr, align 8
  store ptr %0, ptr %3, align 8, !tbaa !3
  store ptr %1, ptr %4, align 8, !tbaa !3
  call void @llvm.lifetime.start.p0(i64 24, ptr %5) #8
  %7 = getelementptr inbounds [1 x %struct.__va_list_tag], ptr %5, i64 0, i64 0
  call void @llvm.va_start.p0(ptr %7)
  call void @llvm.lifetime.start.p0(i64 8, ptr %6) #8
  %8 = call i32 @count_args(ptr noundef %5)
  %9 = add nsw i32 %8, 2
  %10 = sext i32 %9 to i64
  %11 = mul i64 %10, 8
  %12 = alloca i8, i64 %11, align 16
  store ptr %12, ptr %6, align 8, !tbaa !8
  %13 = load ptr, ptr %6, align 8, !tbaa !8
  %14 = load ptr, ptr %4, align 8, !tbaa !3
  call void @copy_args(ptr noundef %13, ptr noundef %14, ptr noundef %5)
  %15 = getelementptr inbounds [1 x %struct.__va_list_tag], ptr %5, i64 0, i64 0
  call void @llvm.va_end.p0(ptr %15)
  %16 = load ptr, ptr %3, align 8, !tbaa !3
  %17 = load ptr, ptr %6, align 8, !tbaa !8
  %18 = load ptr, ptr @environ, align 8, !tbaa !8
  %19 = call i32 @execve(ptr noundef %16, ptr noundef %17, ptr noundef %18) #8
  call void @llvm.lifetime.end.p0(i64 8, ptr %6) #8
  call void @llvm.lifetime.end.p0(i64 24, ptr %5) #8
  ret i32 %19
}